target datalayout = "e-m:e-p270:32:32-p271:32:32-p272:64:64-i64:64-i128:128-f80:128-n8:16:32:64-S128"
target triple = "x86_64-pc-linux-gnu"

%"class.std::__cxx11::basic_string" = type { %"struct.std::__cxx11::basic_string<char>::_Alloc_hider", i64, %union.anon }
%"struct.std::__cxx11::basic_string<char>::_Alloc_hider" = type { ptr }
%union.anon = type { i64, [8 x i8] }
%"struct.pxrInternal_v0_24__pxrReserved__::HgiShaderFunctionTessellationDesc" = type { i32, i32, i32, %"class.std::__cxx11::basic_string", %"class.std::__cxx11::basic_string" }

; Function Attrs: noreturn nounwind uwtable
define linkonce_odr hidden void @__clang_call_terminate(ptr noundef %0) #6 comdat {
  %2 = call ptr @__cxa_begin_catch(ptr %0) #10
  call void @_ZSt9terminatev() #12
  unreachable
}

; Function Attrs: mustprogress nounwind uwtable
define linkonce_odr noundef i32 @_ZNSt11char_traitsIcE7compareEPKcS2_m(ptr noundef %0, ptr noundef %1, i64 noundef %2) #0 comdat align 2 {
  %4 = alloca i32, align 4
  %5 = alloca ptr, align 8
  %6 = alloca ptr, align 8
  %7 = alloca i64, align 8
  store ptr %0, ptr %5, align 8
  store ptr %1, ptr %6, align 8
  store i64 %2, ptr %7, align 8
  %8 = load i64, ptr %7, align 8
  %9 = icmp eq i64 %8, 0
  br i1 %9, label %10, label %11

10:                                               ; preds = %3
  store i32 0, ptr %4, align 4
  br label %16

11:                                               ; preds = %3
  %12 = load ptr, ptr %5, align 8
  %13 = load ptr, ptr %6, align 8
  %14 = load i64, ptr %7, align 8
  %15 = call i32 @memcmp(ptr noundef %12, ptr noundef %13, i64 noundef %14) #10
  store i32 %15, ptr %4, align 4
  br label %16

16:                                               ; preds = %11, %10
  %17 = load i32, ptr %4, align 4
  ret i32 %17
}

; Function Attrs: mustprogress nounwind uwtable
define linkonce_odr noundef zeroext i1 @_ZSteqIcEN9__gnu_cxx11__enable_ifIXsr9__is_charIT_EE7__valueEbE6__typeERKNSt7__cxx1112basic_stringIS2_St11char_traitsIS2_ESaIS2_EEESC_(ptr noundef nonnull align 8 dereferenceable(32) %0, ptr noundef nonnull align 8 dereferenceable(32) %1) #0 comdat personality ptr @__gxx_personality_v0 {
  %3 = alloca ptr, align 8
  %4 = alloca ptr, align 8
  store ptr %0, ptr %3, align 8
  store ptr %1, ptr %4, align 8
  %5 = load ptr, ptr %3, align 8
  %6 = call noundef i64 @_ZNKSt7__cxx1112basic_stringIcSt11char_traitsIcESaIcEE4sizeEv(ptr noundef nonnull align 8 dereferenceable(32) %5) #10
  %7 = load ptr, ptr %4, align 8
  %8 = call noundef i64 @_ZNKSt7__cxx1112basic_stringIcSt11char_traitsIcESaIcEE4sizeEv(ptr noundef nonnull align 8 dereferenceable(32) %7) #10
  %9 = icmp eq i64 %6, %8
  br i1 %9, label %10, label %21

10:                                               ; preds = %2
  %11 = load ptr, ptr %3, align 8
  %12 = call noundef ptr @_ZNKSt7__cxx1112basic_stringIcSt11char_traitsIcESaIcEE4dataEv(ptr noundef nonnull align 8 dereferenceable(32) %11) #10
  %13 = load ptr, ptr %4, align 8
  %14 = call noundef ptr @_ZNKSt7__cxx1112basic_stringIcSt11char_traitsIcESaIcEE4dataEv(ptr noundef nonnull align 8 dereferenceable(32) %13) #10
  %15 = load ptr, ptr %3, align 8
  %16 = call noundef i64 @_ZNKSt7__cxx1112basic_stringIcSt11char_traitsIcESaIcEE4sizeEv(ptr noundef nonnull align 8 dereferenceable(32) %15) #10
  %17 = invoke noundef i32 @_ZNSt11char_traitsIcE7compareEPKcS2_m(ptr noundef %12, ptr noundef %14, i64 noundef %16)
          to label %18 unwind label %23

18:                                               ; preds = %10
  %19 = icmp ne i32 %17, 0
  %20 = xor i1 %19, true
  br label %21

21:                                               ; preds = %18, %2
  %22 = phi i1 [ false, %2 ], [ %20, %18 ]
  ret i1 %22

23:                                               ; preds = %10
  %24 = landingpad { ptr, i32 }
          catch ptr null
  %25 = extractvalue { ptr, i32 } %24, 0
  call void @__clang_call_terminate(ptr %25) #12
  unreachable
}

; Function Attrs: mustprogress nounwind uwtable
define noundef zeroext i1 @_ZN32pxrInternal_v0_24__pxrReserved__eqERKNS_33HgiShaderFunctionTessellationDescES2_(ptr noundef nonnull align 8 dereferenceable(80) %0, ptr noundef nonnull align 8 dereferenceable(80) %1) #0 {
  %3 = alloca ptr, align 8
  %4 = alloca ptr, align 8
  store ptr %0, ptr %3, align 8
  store ptr %1, ptr %4, align 8
  %5 = load ptr, ptr %3, align 8
  %6 = getelementptr inbounds nuw %"struct.pxrInternal_v0_24__pxrReserved__::HgiShaderFunctionTessellationDesc", ptr %5, i32 0, i32 0
  %7 = load i32, ptr %6, align 8
  %8 = load ptr, ptr %4, align 8
  %9 = getelementptr inbounds nuw %"struct.pxrInternal_v0_24__pxrReserved__::HgiShaderFunctionTessellationDesc", ptr %8, i32 0, i32 0
  %10 = load i32, ptr %9, align 8
  %11 = icmp eq i32 %7, %10
  br i1 %11, label %12, label %40

12:                                               ; preds = %2
  %13 = load ptr, ptr %3, align 8
  %14 = getelementptr inbounds nuw %"struct.pxrInternal_v0_24__pxrReserved__::HgiShaderFunctionTessellationDesc", ptr %13, i32 0, i32 1
  %15 = load i32, ptr %14, align 4
  %16 = load ptr, ptr %4, align 8
  %17 = getelementptr inbounds nuw %"struct.pxrInternal_v0_24__pxrReserved__::HgiShaderFunctionTessellationDesc", ptr %16, i32 0, i32 1
  %18 = load i32, ptr %17, align 4
  %19 = icmp eq i32 %15, %18
  br i1 %19, label %20, label %40

20:                                               ; preds = %12
  %21 = load ptr, ptr %3, align 8
  %22 = getelementptr inbounds nuw %"struct.pxrInternal_v0_24__pxrReserved__::HgiShaderFunctionTessellationDesc", ptr %21, i32 0, i32 2
  %23 = load i32, ptr %22, align 8
  %24 = load ptr, ptr %4, align 8
  %25 = getelementptr inbounds nuw %"struct.pxrInternal_v0_24__pxrReserved__::HgiShaderFunctionTessellationDesc", ptr %24, i32 0, i32 2
  %26 = load i32, ptr %25, align 8
  %27 = icmp eq i32 %23, %26
  br i1 %27, label %28, label %40

28:                                               ; preds = %20
  %29 = load ptr, ptr %3, align 8
  %30 = getelementptr inbounds nuw %"struct.pxrInternal_v0_24__pxrReserved__::HgiShaderFunctionTessellationDesc", ptr %29, i32 0, i32 3
  %31 = load ptr, ptr %4, align 8
  %32 = getelementptr inbounds nuw %"struct.pxrInternal_v0_24__pxrReserved__::HgiShaderFunctionTessellationDesc", ptr %31, i32 0, i32 3
  %33 = call noundef zeroext i1 @_ZSteqIcEN9__gnu_cxx11__enable_ifIXsr9__is_charIT_EE7__valueEbE6__typeERKNSt7__cxx1112basic_stringIS2_St11char_traitsIS2_ESaIS2_EEESC_(ptr noundef nonnull align 8 dereferenceable(32) %30, ptr noundef nonnull align 8 dereferenceable(32) %32) #10
  br i1 %33, label %34, label %40

34:                                               ; preds = %28
  %35 = load ptr, ptr %3, align 8
  %36 = getelementptr inbounds nuw %"struct.pxrInternal_v0_24__pxrReserved__::HgiShaderFunctionTessellationDesc", ptr %35, i32 0, i32 4
  %37 = load ptr, ptr %4, align 8
  %38 = getelementptr inbounds nuw %"struct.pxrInternal_v0_24__pxrReserved__::HgiShaderFunctionTessellationDesc", ptr %37, i32 0, i32 4
  %39 = call noundef zeroext i1 @_ZSteqIcEN9__gnu_cxx11__enable_ifIXsr9__is_charIT_EE7__valueEbE6__typeERKNSt7__cxx1112basic_stringIS2_St11char_traitsIS2_ESaIS2_EEESC_(ptr noundef nonnull align 8 dereferenceable(32) %36, ptr noundef nonnull align 8 dereferenceable(32) %38) #10
  br label %40

40:                                               ; preds = %34, %28, %20, %12, %2
  %41 = phi i1 [ false, %28 ], [ false, %20 ], [ false, %12 ], [ false, %2 ], [ %39, %34 ]
  ret i1 %41
}